target datalayout = "e-m:e-p270:32:32-p271:32:32-p272:64:64-i64:64-i128:128-f80:128-n8:16:32:64-S128"
target triple = "x86_64-pc-linux-gnu"

%"class.std::__1::unique_ptr" = type { %"class.std::__1::__compressed_pair" }
%"class.std::__1::__compressed_pair" = type { %"struct.std::__1::__compressed_pair_elem" }
%"struct.std::__1::__compressed_pair_elem" = type { ptr }
%"class.mitsuba::Bitmap" = type { %"class.mitsuba::Object.base", %"class.std::__1::unique_ptr", i32, i32, %"struct.mitsuba::Vector", %"class.mitsuba::ref", i8, i8, i8, %"class.mitsuba::Properties" }
%"class.mitsuba::Object.base" = type <{ ptr, %"struct.std::__1::atomic" }>
%"struct.std::__1::atomic" = type { %"struct.std::__1::__atomic_base" }
%"struct.std::__1::__atomic_base" = type { %"struct.std::__1::__atomic_base.0" }
%"struct.std::__1::__atomic_base.0" = type { %"struct.std::__1::__cxx_atomic_impl" }
%"struct.std::__1::__cxx_atomic_impl" = type { %"struct.std::__1::__cxx_atomic_base_impl" }
%"struct.std::__1::__cxx_atomic_base_impl" = type { i32 }
%"struct.mitsuba::Vector" = type { %"struct.drjit::StaticArrayImpl" }
%"struct.drjit::StaticArrayImpl" = type { [2 x i32] }
%"class.mitsuba::ref" = type { ptr }
%"class.mitsuba::Properties" = type { %"class.std::__1::unique_ptr.2" }
%"class.std::__1::unique_ptr.2" = type { %"class.std::__1::__compressed_pair.3" }
%"class.std::__1::__compressed_pair.3" = type { %"struct.std::__1::__compressed_pair_elem.4" }
%"struct.std::__1::__compressed_pair_elem.4" = type { ptr }
%"class.mitsuba::Object" = type <{ ptr, %"struct.std::__1::atomic", [4 x i8] }>
%"struct.std::__1::__value_init_tag" = type { i8 }

@_ZTVN7mitsuba6ObjectE = external unnamed_addr constant { [11 x ptr] }, align 8

; Function Attrs: mustprogress nounwind uwtable
define linkonce_odr hidden void @_ZNSt3__122__cxx_atomic_base_implIiEC2Ei(ptr noundef nonnull align 4 dereferenceable(4) %0, i32 noundef %1) unnamed_addr #1 comdat align 2 {
  %3 = alloca ptr, align 8
  %4 = alloca i32, align 4
  store ptr %0, ptr %3, align 8
  store i32 %1, ptr %4, align 4
  %5 = load ptr, ptr %3, align 8
  %6 = getelementptr inbounds %"struct.std::__1::__cxx_atomic_base_impl", ptr %5, i32 0, i32 0
  %7 = load i32, ptr %4, align 4
  store i32 %7, ptr %6, align 4
  ret void
}

; Function Attrs: mustprogress nounwind uwtable
define linkonce_odr hidden void @_ZNSt3__117__cxx_atomic_implIiNS_22__cxx_atomic_base_implIiEEEC2B8ne190000Ei(ptr noundef nonnull align 4 dereferenceable(4) %0, i32 noundef %1) unnamed_addr #1 comdat align 2 {
  %3 = alloca ptr, align 8
  %4 = alloca i32, align 4
  store ptr %0, ptr %3, align 8
  store i32 %1, ptr %4, align 4
  %5 = load ptr, ptr %3, align 8
  %6 = load i32, ptr %4, align 4
  call void @_ZNSt3__122__cxx_atomic_base_implIiEC2Ei(ptr noundef nonnull align 4 dereferenceable(4) %5, i32 noundef %6) #29
  ret void
}

; Function Attrs: mustprogress nounwind uwtable
define linkonce_odr hidden noundef nonnull align 1 dereferenceable(1) ptr @_ZNSt3__122__compressed_pair_elemINS_14default_deleteIA_hEELi1ELb1EE5__getB8ne190000Ev(ptr noundef nonnull align 1 dereferenceable(1) %0) #1 comdat align 2 {
  %2 = alloca ptr, align 8
  store ptr %0, ptr %2, align 8
  %3 = load ptr, ptr %2, align 8
  ret ptr %3
}

; Function Attrs: mustprogress nounwind uwtable
define linkonce_odr hidden noundef nonnull align 8 dereferenceable(8) ptr @_ZNSt3__122__compressed_pair_elemIPhLi0ELb0EE5__getB8ne190000Ev(ptr noundef nonnull align 8 dereferenceable(8) %0) #1 comdat align 2 {
  %2 = alloca ptr, align 8
  store ptr %0, ptr %2, align 8
  %3 = load ptr, ptr %2, align 8
  %4 = getelementptr inbounds %"struct.std::__1::__compressed_pair_elem", ptr %3, i32 0, i32 0
  ret ptr %4
}

; Function Attrs: mustprogress nounwind uwtable
define linkonce_odr hidden void @_ZNSt3__113__atomic_baseIiLb0EEC2B8ne190000Ei(ptr noundef nonnull align 4 dereferenceable(4) %0, i32 noundef %1) unnamed_addr #1 comdat align 2 {
  %3 = alloca ptr, align 8
  %4 = alloca i32, align 4
  store ptr %0, ptr %3, align 8
  store i32 %1, ptr %4, align 4
  %5 = load ptr, ptr %3, align 8
  %6 = getelementptr inbounds %"struct.std::__1::__atomic_base.0", ptr %5, i32 0, i32 0
  %7 = load i32, ptr %4, align 4
  call void @_ZNSt3__117__cxx_atomic_implIiNS_22__cxx_atomic_base_implIiEEEC2B8ne190000Ei(ptr noundef nonnull align 4 dereferenceable(4) %6, i32 noundef %7) #29
  ret void
}

; Function Attrs: mustprogress nounwind uwtable
define linkonce_odr hidden void @_ZNKSt3__114default_deleteIA_hEclB8ne190000IhEENS2_20_EnableIfConvertibleIT_E4typeEPS5_(ptr noundef nonnull align 1 dereferenceable(1) %0, ptr noundef %1) #1 comdat align 2 {
  %3 = alloca ptr, align 8
  %4 = alloca ptr, align 8
  store ptr %0, ptr %3, align 8
  store ptr %1, ptr %4, align 8
  %5 = load ptr, ptr %4, align 8
  %6 = icmp eq ptr %5, null
  br i1 %6, label %8, label %7

7:                                                ; preds = %2
  call void @_ZdaPv(ptr noundef %5) #33
  br label %8

8:                                                ; preds = %7, %2
  ret void
}

; Function Attrs: mustprogress nounwind uwtable
define linkonce_odr hidden noundef nonnull align 1 dereferenceable(1) ptr @_ZNSt3__117__compressed_pairIPhNS_14default_deleteIA_hEEE6secondB8ne190000Ev(ptr noundef nonnull align 8 dereferenceable(8) %0) #1 comdat align 2 {
  %2 = alloca ptr, align 8
  store ptr %0, ptr %2, align 8
  %3 = load ptr, ptr %2, align 8
  %4 = call noundef nonnull align 1 dereferenceable(1) ptr @_ZNSt3__122__compressed_pair_elemINS_14default_deleteIA_hEELi1ELb1EE5__getB8ne190000Ev(ptr noundef nonnull align 1 dereferenceable(1) %3) #29
  ret ptr %4
}

; Function Attrs: mustprogress nounwind uwtable
define linkonce_odr hidden noundef nonnull align 8 dereferenceable(8) ptr @_ZNSt3__117__compressed_pairIPhNS_14default_deleteIA_hEEE5firstB8ne190000Ev(ptr noundef nonnull align 8 dereferenceable(8) %0) #1 comdat align 2 {
  %2 = alloca ptr, align 8
  store ptr %0, ptr %2, align 8
  %3 = load ptr, ptr %2, align 8
  %4 = call noundef nonnull align 8 dereferenceable(8) ptr @_ZNSt3__122__compressed_pair_elemIPhLi0ELb0EE5__getB8ne190000Ev(ptr noundef nonnull align 8 dereferenceable(8) %3) #29
  ret ptr %4
}

; Function Attrs: mustprogress nounwind uwtable
define linkonce_odr hidden void @_ZNSt3__122__compressed_pair_elemINS_14default_deleteIA_hEELi1ELb1EEC2B8ne190000ENS_16__value_init_tagE(ptr noundef nonnull align 1 dereferenceable(1) %0) unnamed_addr #1 comdat align 2 {
  %2 = alloca ptr, align 8
  store ptr %0, ptr %2, align 8
  ret void
}

; Function Attrs: mustprogress nounwind uwtable
define linkonce_odr hidden void @_ZNSt3__122__compressed_pair_elemIPhLi0ELb0EEC2B8ne190000ENS_16__value_init_tagE(ptr noundef nonnull align 8 dereferenceable(8) %0) unnamed_addr #1 comdat align 2 {
  %2 = alloca ptr, align 8
  store ptr %0, ptr %2, align 8
  %3 = load ptr, ptr %2, align 8
  %4 = getelementptr inbounds %"struct.std::__1::__compressed_pair_elem", ptr %3, i32 0, i32 0
  store ptr null, ptr %4, align 8
  ret void
}

; Function Attrs: mustprogress nounwind uwtable
define linkonce_odr hidden void @_ZNSt3__113__atomic_baseIiLb1EEC2B8ne190000Ei(ptr noundef nonnull align 4 dereferenceable(4) %0, i32 noundef %1) unnamed_addr #1 comdat align 2 {
  %3 = alloca ptr, align 8
  %4 = alloca i32, align 4
  store ptr %0, ptr %3, align 8
  store i32 %1, ptr %4, align 4
  %5 = load ptr, ptr %3, align 8
  %6 = load i32, ptr %4, align 4
  call void @_ZNSt3__113__atomic_baseIiLb0EEC2B8ne190000Ei(ptr noundef nonnull align 4 dereferenceable(4) %5, i32 noundef %6) #29
  ret void
}

; Function Attrs: mustprogress nounwind uwtable
define linkonce_odr hidden void @_ZNSt3__110unique_ptrIA_hNS_14default_deleteIS1_EEE5resetB8ne190000EDn(ptr noundef nonnull align 8 dereferenceable(8) %0, ptr %1) #1 comdat align 2 {
  %3 = alloca ptr, align 8
  %4 = alloca ptr, align 8
  %5 = alloca ptr, align 8
  store ptr %0, ptr %3, align 8
  store ptr %1, ptr %4, align 8
  %6 = load ptr, ptr %3, align 8
  %7 = getelementptr inbounds %"class.std::__1::unique_ptr", ptr %6, i32 0, i32 0
  %8 = call noundef nonnull align 8 dereferenceable(8) ptr @_ZNSt3__117__compressed_pairIPhNS_14default_deleteIA_hEEE5firstB8ne190000Ev(ptr noundef nonnull align 8 dereferenceable(8) %7) #29
  %9 = load ptr, ptr %8, align 8
  store ptr %9, ptr %5, align 8
  %10 = getelementptr inbounds %"class.std::__1::unique_ptr", ptr %6, i32 0, i32 0
  %11 = call noundef nonnull align 8 dereferenceable(8) ptr @_ZNSt3__117__compressed_pairIPhNS_14default_deleteIA_hEEE5firstB8ne190000Ev(ptr noundef nonnull align 8 dereferenceable(8) %10) #29
  store ptr null, ptr %11, align 8
  %12 = load ptr, ptr %5, align 8
  %13 = icmp ne ptr %12, null
  br i1 %13, label %14, label %18

14:                                               ; preds = %2
  %15 = getelementptr inbounds %"class.std::__1::unique_ptr", ptr %6, i32 0, i32 0
  %16 = call noundef nonnull align 1 dereferenceable(1) ptr @_ZNSt3__117__compressed_pairIPhNS_14default_deleteIA_hEEE6secondB8ne190000Ev(ptr noundef nonnull align 8 dereferenceable(8) %15) #29
  %17 = load ptr, ptr %5, align 8
  call void @_ZNKSt3__114default_deleteIA_hEclB8ne190000IhEENS2_20_EnableIfConvertibleIT_E4typeEPS5_(ptr noundef nonnull align 1 dereferenceable(1) %16, ptr noundef %17) #29
  br label %18

18:                                               ; preds = %14, %2
  ret void
}

; Function Attrs: noreturn nounwind uwtable
define linkonce_odr hidden void @__clang_call_terminate(ptr noundef %0) #16 comdat {
  %2 = call ptr @__cxa_begin_catch(ptr %0) #29
  call void @_ZSt9terminatev() #31
  unreachable
}

; Function Attrs: mustprogress uwtable
define linkonce_odr hidden void @_ZNSt3__117__compressed_pairIPhNS_14default_deleteIA_hEEEC2B8ne190000INS_16__value_init_tagES7_EEOT_OT0_(ptr noundef nonnull align 8 dereferenceable(8) %0, ptr noundef nonnull align 1 dereferenceable(1) %1, ptr noundef nonnull align 1 dereferenceable(1) %2) unnamed_addr #0 comdat align 2 {
  %4 = alloca ptr, align 8
  %5 = alloca ptr, align 8
  %6 = alloca ptr, align 8
  store ptr %0, ptr %4, align 8
  store ptr %1, ptr %5, align 8
  store ptr %2, ptr %6, align 8
  %7 = load ptr, ptr %4, align 8
  call void @_ZNSt3__122__compressed_pair_elemIPhLi0ELb0EEC2B8ne190000ENS_16__value_init_tagE(ptr noundef nonnull align 8 dereferenceable(8) %7)
  call void @_ZNSt3__122__compressed_pair_elemINS_14default_deleteIA_hEELi1ELb1EEC2B8ne190000ENS_16__value_init_tagE(ptr noundef nonnull align 1 dereferenceable(1) %7)
  ret void
}

; Function Attrs: mustprogress nounwind uwtable
define linkonce_odr hidden void @_ZNSt3__16atomicIiEC2B8ne190000Ei(ptr noundef nonnull align 4 dereferenceable(4) %0, i32 noundef %1) unnamed_addr #1 comdat align 2 {
  %3 = alloca ptr, align 8
  %4 = alloca i32, align 4
  store ptr %0, ptr %3, align 8
  store i32 %1, ptr %4, align 4
  %5 = load ptr, ptr %3, align 8
  %6 = load i32, ptr %4, align 4
  call void @_ZNSt3__113__atomic_baseIiLb1EEC2B8ne190000Ei(ptr noundef nonnull align 4 dereferenceable(4) %5, i32 noundef %6) #29
  ret void
}

; Function Attrs: mustprogress nounwind uwtable
define linkonce_odr hidden void @_ZNSt3__110unique_ptrIA_hNS_14default_deleteIS1_EEED2B8ne190000Ev(ptr noundef nonnull align 8 dereferenceable(8) %0) unnamed_addr #1 comdat align 2 {
  %2 = alloca ptr, align 8
  store ptr %0, ptr %2, align 8
  %3 = load ptr, ptr %2, align 8
  call void @_ZNSt3__110unique_ptrIA_hNS_14default_deleteIS1_EEE5resetB8ne190000EDn(ptr noundef nonnull align 8 dereferenceable(8) %3, ptr null) #29
  ret void
}

; Function Attrs: mustprogress nounwind uwtable
define linkonce_odr hidden void @_ZN7mitsuba3refINS_6StructEED2Ev(ptr noundef nonnull align 8 dereferenceable(8) %0) unnamed_addr #1 comdat align 2 {
  %2 = alloca ptr, align 8
  store ptr %0, ptr %2, align 8
  %3 = load ptr, ptr %2, align 8
  %4 = getelementptr inbounds %"class.mitsuba::ref", ptr %3, i32 0, i32 0
  %5 = load ptr, ptr %4, align 8
  %6 = icmp ne ptr %5, null
  br i1 %6, label %7, label %10

7:                                                ; preds = %1
  %8 = getelementptr inbounds %"class.mitsuba::ref", ptr %3, i32 0, i32 0
  %9 = load ptr, ptr %8, align 8
  call void @_ZNK7mitsuba6Object7dec_refEb(ptr noundef nonnull align 8 dereferenceable(12) %9, i1 noundef zeroext true) #29
  br label %10

10:                                               ; preds = %7, %1
  ret void
}

; Function Attrs: mustprogress nounwind uwtable
define linkonce_odr hidden void @_ZN7mitsuba3refINS_6StructEEC2Ev(ptr noundef nonnull align 8 dereferenceable(8) %0) unnamed_addr #1 comdat align 2 {
  %2 = alloca ptr, align 8
  store ptr %0, ptr %2, align 8
  %3 = load ptr, ptr %2, align 8
  %4 = getelementptr inbounds %"class.mitsuba::ref", ptr %3, i32 0, i32 0
  store ptr null, ptr %4, align 8
  ret void
}

; Function Attrs: mustprogress nounwind uwtable
define linkonce_odr hidden void @_ZNSt3__110unique_ptrIA_hNS_14default_deleteIS1_EEEC2B8ne190000ILb1EvEEv(ptr noundef nonnull align 8 dereferenceable(8) %0) unnamed_addr #1 comdat align 2 personality ptr @__gxx_personality_v0 {
  %2 = alloca ptr, align 8
  %3 = alloca %"struct.std::__1::__value_init_tag", align 1
  %4 = alloca %"struct.std::__1::__value_init_tag", align 1
  store ptr %0, ptr %2, align 8
  %5 = load ptr, ptr %2, align 8
  %6 = getelementptr inbounds %"class.std::__1::unique_ptr", ptr %5, i32 0, i32 0
  invoke void @_ZNSt3__117__compressed_pairIPhNS_14default_deleteIA_hEEEC2B8ne190000INS_16__value_init_tagES7_EEOT_OT0_(ptr noundef nonnull align 8 dereferenceable(8) %6, ptr noundef nonnull align 1 dereferenceable(1) %3, ptr noundef nonnull align 1 dereferenceable(1) %4)
          to label %7 unwind label %8

7:                                                ; preds = %1
  ret void

8:                                                ; preds = %1
  %9 = landingpad { ptr, i32 }
          catch ptr null
  %10 = extractvalue { ptr, i32 } %9, 0
  call void @__clang_call_terminate(ptr %10) #31
  unreachable
}

; Function Attrs: mustprogress nounwind uwtable
define linkonce_odr void @_ZN7mitsuba6ObjectC2Ev(ptr noundef nonnull align 8 dereferenceable(12) %0) unnamed_addr #1 comdat align 2 {
  %2 = alloca ptr, align 8
  store ptr %0, ptr %2, align 8
  %3 = load ptr, ptr %2, align 8
  store ptr getelementptr inbounds inrange(-16, 72) ({ [11 x ptr] }, ptr @_ZTVN7mitsuba6ObjectE, i32 0, i32 0, i32 2), ptr %3, align 8
  %4 = getelementptr inbounds %"class.mitsuba::Object", ptr %3, i32 0, i32 1
  call void @_ZNSt3__16atomicIiEC2B8ne190000Ei(ptr noundef nonnull align 4 dereferenceable(4) %4, i32 noundef 0) #29
  ret void
}

; Function Attrs: mustprogress uwtable
define void @_ZN7mitsuba6BitmapC2EPNS_6StreamENS0_10FileFormatE(ptr noundef nonnull align 8 dereferenceable(64) %0, ptr noundef %1, i32 noundef %2) unnamed_addr #0 align 2 personality ptr @__gxx_personality_v0 {
  %4 = alloca ptr, align 8
  %5 = alloca ptr, align 8
  %6 = alloca i32, align 4
  %7 = alloca ptr, align 8
  %8 = alloca i32, align 4
  store ptr %0, ptr %4, align 8
  store ptr %1, ptr %5, align 8
  store i32 %2, ptr %6, align 4
  %9 = load ptr, ptr %4, align 8
  call void @_ZN7mitsuba6ObjectC2Ev(ptr noundef nonnull align 8 dereferenceable(12) %9)
  store ptr getelementptr inbounds inrange(-16, 72) ({ [11 x ptr] }, ptr @_ZTVN7mitsuba6BitmapE, i32 0, i32 0, i32 2), ptr %9, align 8
  %10 = getelementptr inbounds %"class.mitsuba::Bitmap", ptr %9, i32 0, i32 1
  call void @_ZNSt3__110unique_ptrIA_hNS_14default_deleteIS1_EEEC2B8ne190000ILb1EvEEv(ptr noundef nonnull align 8 dereferenceable(8) %10) #29
  %11 = getelementptr inbounds %"class.mitsuba::Bitmap", ptr %9, i32 0, i32 5
  invoke void @_ZN7mitsuba3refINS_6StructEEC2Ev(ptr noundef nonnull align 8 dereferenceable(8) %11)
          to label %12 unwind label %18

12:                                               ; preds = %3
  %13 = getelementptr inbounds %"class.mitsuba::Bitmap", ptr %9, i32 0, i32 9
  invoke void @_ZN7mitsuba10PropertiesC1Ev(ptr noundef nonnull align 8 dereferenceable(8) %13)
          to label %14 unwind label %22

14:                                               ; preds = %12
  %15 = load ptr, ptr %5, align 8
  %16 = load i32, ptr %6, align 4
  invoke void @_ZN7mitsuba6Bitmap4readEPNS_6StreamENS0_10FileFormatE(ptr noundef nonnull align 8 dereferenceable(64) %9, ptr noundef %15, i32 noundef %16)
          to label %17 unwind label %26

17:                                               ; preds = %14
  ret void

18:                                               ; preds = %3
  %19 = landingpad { ptr, i32 }
          cleanup
  %20 = extractvalue { ptr, i32 } %19, 0
  store ptr %20, ptr %7, align 8
  %21 = extractvalue { ptr, i32 } %19, 1
  store i32 %21, ptr %8, align 4
  br label %31

22:                                               ; preds = %12
  %23 = landingpad { ptr, i32 }
          cleanup
  %24 = extractvalue { ptr, i32 } %23, 0
  store ptr %24, ptr %7, align 8
  %25 = extractvalue { ptr, i32 } %23, 1
  store i32 %25, ptr %8, align 4
  br label %30

26:                                               ; preds = %14
  %27 = landingpad { ptr, i32 }
          cleanup
  %28 = extractvalue { ptr, i32 } %27, 0
  store ptr %28, ptr %7, align 8
  %29 = extractvalue { ptr, i32 } %27, 1
  store i32 %29, ptr %8, align 4
  call void @_ZN7mitsuba10PropertiesD1Ev(ptr noundef nonnull align 8 dereferenceable(8) %13) #29
  br label %30

30:                                               ; preds = %26, %22
  call void @_ZN7mitsuba3refINS_6StructEED2Ev(ptr noundef nonnull align 8 dereferenceable(8) %11) #29
  br label %31

31:                                               ; preds = %30, %18
  call void @_ZNSt3__110unique_ptrIA_hNS_14default_deleteIS1_EEED2B8ne190000Ev(ptr noundef nonnull align 8 dereferenceable(8) %10) #29
  call void @_ZN7mitsuba6ObjectD2Ev(ptr noundef nonnull align 8 dereferenceable(12) %9) #29
  br label %32

32:                                               ; preds = %31
  %33 = load ptr, ptr %7, align 8
  %34 = load i32, ptr %8, align 4
  %35 = insertvalue { ptr, i32 } poison, ptr %33, 0
  %36 = insertvalue { ptr, i32 } %35, i32 %34, 1
  resume { ptr, i32 } %36
}