; Function Attrs: mustprogress uwtable
define void @_ZN7mitsuba6BitmapC2EPNS_6StreamENS0_10FileFormatE(ptr noundef nonnull align 8 dereferenceable(64) %0, ptr noundef %1, i32 noundef %2) unnamed_addr #0 align 2 personality ptr @__gxx_personality_v0 {
  %4 = getelementptr inbounds i8, ptr %0, i64 8
  store i32 0, ptr %4, align 8
  store ptr getelementptr inbounds inrange(-16, 72) ({ [11 x ptr] }, ptr @_ZTVN7mitsuba6BitmapE, i64 0, i32 0, i64 2), ptr %0, align 8
  %5 = getelementptr inbounds i8, ptr %0, i64 16
  store ptr null, ptr %5, align 8
  %6 = getelementptr inbounds i8, ptr %0, i64 40
  store ptr null, ptr %6, align 8
  %7 = getelementptr inbounds i8, ptr %0, i64 56
  invoke void @_ZN7mitsuba10PropertiesC1Ev(ptr noundef nonnull align 8 dereferenceable(8) %7)
          to label %8 unwind label %10

8:                                                ; preds = %3
  invoke void @_ZN7mitsuba6Bitmap4readEPNS_6StreamENS0_10FileFormatE(ptr noundef nonnull align 8 dereferenceable(64) %0, ptr noundef %1, i32 noundef %2)
          to label %9 unwind label %12

9:                                                ; preds = %8
  ret void

10:                                               ; preds = %3
  %11 = landingpad { ptr, i32 }
          cleanup
  br label %14

12:                                               ; preds = %8
  %13 = landingpad { ptr, i32 }
          cleanup
  tail call void @_ZN7mitsuba10PropertiesD1Ev(ptr noundef nonnull align 8 dereferenceable(8) %7) #36
  br label %14

14:                                               ; preds = %12, %10
  %.pn = phi { ptr, i32 } [ %13, %12 ], [ %11, %10 ]
  %15 = load ptr, ptr %6, align 8
  %.not.i = icmp eq ptr %15, null
  br i1 %.not.i, label %_ZN7mitsuba3refINS_6StructEED2Ev.exit, label %16

16:                                               ; preds = %14
  tail call void @_ZNK7mitsuba6Object7dec_refEb(ptr noundef nonnull align 8 dereferenceable(12) %15, i1 noundef zeroext true) #36
  br label %_ZN7mitsuba3refINS_6StructEED2Ev.exit

_ZN7mitsuba3refINS_6StructEED2Ev.exit:            ; preds = %14, %16
  %17 = load ptr, ptr %5, align 8
  store ptr null, ptr %5, align 8
  %.not.i.i = icmp eq ptr %17, null
  br i1 %.not.i.i, label %_ZNSt3__110unique_ptrIA_hNS_14default_deleteIS1_EEED2B8ne190000Ev.exit, label %_ZNKSt3__114default_deleteIA_hEclB8ne190000IhEENS2_20_EnableIfConvertibleIT_E4typeEPS5_.exit.i.i

_ZNKSt3__114default_deleteIA_hEclB8ne190000IhEENS2_20_EnableIfConvertibleIT_E4typeEPS5_.exit.i.i: ; preds = %_ZN7mitsuba3refINS_6StructEED2Ev.exit
  tail call void @_ZdaPv(ptr noundef nonnull %17) #35
  br label %_ZNSt3__110unique_ptrIA_hNS_14default_deleteIS1_EEED2B8ne190000Ev.exit

_ZNSt3__110unique_ptrIA_hNS_14default_deleteIS1_EEED2B8ne190000Ev.exit: ; preds = %_ZN7mitsuba3refINS_6StructEED2Ev.exit, %_ZNKSt3__114default_deleteIA_hEclB8ne190000IhEENS2_20_EnableIfConvertibleIT_E4typeEPS5_.exit.i.i
  tail call void @_ZN7mitsuba6ObjectD2Ev(ptr noundef nonnull align 8 dereferenceable(12) %0) #36
  resume { ptr, i32 } %.pn
}